target datalayout = "e-m:e-p270:32:32-p271:32:32-p272:64:64-i64:64-i128:128-f80:128-n8:16:32:64-S128"
target triple = "x86_64-pc-linux-gnu"

%"class.icu_77::UObject" = type { ptr }
%"class.icu_77::internal::LocalOpenPointer" = type { %"class.icu_77::LocalPointerBase.4" }
%"class.icu_77::LocalPointerBase.4" = type { ptr }
%"struct.icu_77::TimeUnitFormatReadSink" = type <{ %"class.icu_77::ResourceSink", ptr, ptr, i32, i8, [3 x i8] }>
%"class.icu_77::ResourceSink" = type { %"class.icu_77::UObject" }

@.str = private unnamed_addr constant [14 x i8] c"icudt77l-unit\00", align 1
@.str.1 = private unnamed_addr constant [9 x i8] c"duration\00", align 1
@.str.2 = private unnamed_addr constant [1 x i8] zeroinitializer, align 1
@_ZTVN6icu_777UObjectE = available_externally unnamed_addr constant { [5 x ptr] } { [5 x ptr] [ptr null, ptr @_ZTIN6icu_777UObjectE, ptr @_ZN6icu_777UObjectD1Ev, ptr @_ZN6icu_777UObjectD0Ev, ptr @_ZNK6icu_777UObject17getDynamicClassIDEv] }, align 8
@_ZTVN6icu_7712ResourceSinkE = available_externally unnamed_addr constant { [6 x ptr] } { [6 x ptr] [ptr null, ptr @_ZTIN6icu_7712ResourceSinkE, ptr @_ZN6icu_7712ResourceSinkD1Ev, ptr @_ZN6icu_7712ResourceSinkD0Ev, ptr @_ZNK6icu_777UObject17getDynamicClassIDEv, ptr @__cxa_pure_virtual] }, align 8
@_ZN6icu_7722TimeUnitFormatReadSinkD1Ev = unnamed_addr alias void (ptr), ptr @_ZN6icu_7722TimeUnitFormatReadSinkD2Ev

; Function Attrs: inlinehint mustprogress nounwind uwtable
define linkonce_odr void @_ZN6icu_777UObjectC2Ev(ptr noundef nonnull align 8 dereferenceable(8) %0) unnamed_addr #2 comdat align 2 {
  %2 = alloca ptr, align 8
  store ptr %0, ptr %2, align 8, !tbaa !149
  %3 = load ptr, ptr %2, align 8
  store ptr getelementptr inbounds inrange(-16, 24) ({ [5 x ptr] }, ptr @_ZTVN6icu_777UObjectE, i32 0, i32 0, i32 2), ptr %3, align 8, !tbaa !25
  ret void
}

; Function Attrs: mustprogress nounwind uwtable
define linkonce_odr void @_ZN6icu_7712ResourceSinkC2Ev(ptr noundef nonnull align 8 dereferenceable(8) %0) unnamed_addr #0 comdat align 2 {
  %2 = alloca ptr, align 8
  store ptr %0, ptr %2, align 8, !tbaa !151
  %3 = load ptr, ptr %2, align 8
  call void @_ZN6icu_777UObjectC2Ev(ptr noundef nonnull align 8 dereferenceable(8) %3) #11
  store ptr getelementptr inbounds inrange(-16, 32) ({ [6 x ptr] }, ptr @_ZTVN6icu_7712ResourceSinkE, i32 0, i32 0, i32 2), ptr %3, align 8, !tbaa !25
  ret void
}

; Function Attrs: mustprogress nounwind uwtable
define linkonce_odr void @_ZN6icu_7716LocalPointerBaseI15UResourceBundleEC2EPS1_(ptr noundef nonnull align 8 dereferenceable(8) %0, ptr noundef %1) unnamed_addr #0 comdat align 2 {
  %3 = alloca ptr, align 8
  %4 = alloca ptr, align 8
  store ptr %0, ptr %3, align 8, !tbaa !115
  store ptr %1, ptr %4, align 8, !tbaa !113
  %5 = load ptr, ptr %3, align 8
  %6 = getelementptr inbounds nuw %"class.icu_77::LocalPointerBase.4", ptr %5, i32 0, i32 0
  %7 = load ptr, ptr %4, align 8, !tbaa !113
  store ptr %7, ptr %6, align 8, !tbaa !117
  ret void
}

; Function Attrs: mustprogress uwtable
define linkonce_odr void @_ZN6icu_7722TimeUnitFormatReadSinkC2EPNS_14TimeUnitFormatERKNS_7UVectorE20UTimeUnitFormatStyle(ptr noundef nonnull align 8 dereferenceable(29) %0, ptr noundef %1, ptr noundef nonnull align 8 dereferenceable(40) %2, i32 noundef %3) unnamed_addr #1 comdat align 2 {
  %5 = alloca ptr, align 8
  %6 = alloca ptr, align 8
  %7 = alloca ptr, align 8
  %8 = alloca i32, align 4
  store ptr %0, ptr %5, align 8, !tbaa !109
  store ptr %1, ptr %6, align 8, !tbaa !23
  store ptr %2, ptr %7, align 8, !tbaa !105
  store i32 %3, ptr %8, align 4, !tbaa !27
  %9 = load ptr, ptr %5, align 8
  call void @_ZN6icu_7712ResourceSinkC2Ev(ptr noundef nonnull align 8 dereferenceable(8) %9)
  store ptr getelementptr inbounds inrange(-16, 32) ({ [6 x ptr] }, ptr @_ZTVN6icu_7722TimeUnitFormatReadSinkE, i32 0, i32 0, i32 2), ptr %9, align 8, !tbaa !25
  %10 = getelementptr inbounds nuw %"struct.icu_77::TimeUnitFormatReadSink", ptr %9, i32 0, i32 1
  %11 = load ptr, ptr %6, align 8, !tbaa !23
  store ptr %11, ptr %10, align 8, !tbaa !119
  %12 = getelementptr inbounds nuw %"struct.icu_77::TimeUnitFormatReadSink", ptr %9, i32 0, i32 2
  %13 = load ptr, ptr %7, align 8, !tbaa !105
  store ptr %13, ptr %12, align 8, !tbaa !105
  %14 = getelementptr inbounds nuw %"struct.icu_77::TimeUnitFormatReadSink", ptr %9, i32 0, i32 3
  %15 = load i32, ptr %8, align 4, !tbaa !27
  store i32 %15, ptr %14, align 8, !tbaa !122
  %16 = getelementptr inbounds nuw %"struct.icu_77::TimeUnitFormatReadSink", ptr %9, i32 0, i32 4
  store i8 0, ptr %16, align 4, !tbaa !123
  ret void
}

; Function Attrs: mustprogress nounwind uwtable
define linkonce_odr noundef ptr @_ZNK6icu_7716LocalPointerBaseI15UResourceBundleE8getAliasEv(ptr noundef nonnull align 8 dereferenceable(8) %0) #0 comdat align 2 {
  %2 = alloca ptr, align 8
  store ptr %0, ptr %2, align 8, !tbaa !115
  %3 = load ptr, ptr %2, align 8
  %4 = getelementptr inbounds nuw %"class.icu_77::LocalPointerBase.4", ptr %3, i32 0, i32 0
  %5 = load ptr, ptr %4, align 8, !tbaa !117
  ret ptr %5
}

; Function Attrs: mustprogress uwtable
define linkonce_odr void @_ZN6icu_778internal16LocalOpenPointerI15UResourceBundleXadL_Z13ures_close_77EEEC2EPS2_(ptr noundef nonnull align 8 dereferenceable(8) %0, ptr noundef %1) unnamed_addr #1 comdat align 2 {
  %3 = alloca ptr, align 8
  %4 = alloca ptr, align 8
  store ptr %0, ptr %3, align 8, !tbaa !111
  store ptr %1, ptr %4, align 8, !tbaa !113
  %5 = load ptr, ptr %3, align 8
  %6 = load ptr, ptr %4, align 8, !tbaa !113
  call void @_ZN6icu_7716LocalPointerBaseI15UResourceBundleEC2EPS1_(ptr noundef nonnull align 8 dereferenceable(8) %5, ptr noundef %6)
  ret void
}

; Function Attrs: inlinehint mustprogress nounwind uwtable
define internal noundef signext i8 @_ZL9U_FAILURE10UErrorCode(i32 noundef %0) #2 {
  %2 = alloca i32, align 4
  store i32 %0, ptr %2, align 4, !tbaa !15
  %3 = load i32, ptr %2, align 4, !tbaa !15
  %4 = icmp sgt i32 %3, 0
  %5 = zext i1 %4 to i8
  ret i8 %5
}

; Function Attrs: mustprogress uwtable
define void @_ZN6icu_7714TimeUnitFormat21readFromCurrentLocaleE20UTimeUnitFormatStylePKcRKNS_7UVectorER10UErrorCode(ptr noundef nonnull align 8 dereferenceable(124) %0, i32 noundef %1, ptr noundef %2, ptr noundef nonnull align 8 dereferenceable(40) %3, ptr noundef nonnull align 4 dereferenceable(4) %4) #1 align 2 personality ptr @__gxx_personality_v0 {
  %6 = alloca ptr, align 8
  %7 = alloca i32, align 4
  %8 = alloca ptr, align 8
  %9 = alloca ptr, align 8
  %10 = alloca ptr, align 8
  %11 = alloca i32, align 4
  %12 = alloca %"class.icu_77::internal::LocalOpenPointer", align 8
  %13 = alloca %"class.icu_77::internal::LocalOpenPointer", align 8
  %14 = alloca ptr, align 8
  %15 = alloca i32, align 4
  %16 = alloca i32, align 4
  %17 = alloca %"struct.icu_77::TimeUnitFormatReadSink", align 8
  store ptr %0, ptr %6, align 8, !tbaa !23
  store i32 %1, ptr %7, align 4, !tbaa !27
  store ptr %2, ptr %8, align 8, !tbaa !17
  store ptr %3, ptr %9, align 8, !tbaa !105
  store ptr %4, ptr %10, align 8, !tbaa !22
  %18 = load ptr, ptr %6, align 8
  %19 = load ptr, ptr %10, align 8, !tbaa !22
  %20 = load i32, ptr %19, align 4, !tbaa !15
  %21 = call noundef signext i8 @_ZL9U_FAILURE10UErrorCode(i32 noundef %20)
  %22 = icmp ne i8 %21, 0
  br i1 %22, label %23, label %24

23:                                               ; preds = %5
  br label %61

24:                                               ; preds = %5
  call void @llvm.lifetime.start.p0(i64 4, ptr %11) #11
  store i32 0, ptr %11, align 4, !tbaa !15
  call void @llvm.lifetime.start.p0(i64 8, ptr %12) #11
  %25 = call noundef ptr @_ZNK6icu_7713MeasureFormat11getLocaleIDER10UErrorCode(ptr noundef nonnull align 8 dereferenceable(64) %18, ptr noundef nonnull align 4 dereferenceable(4) %11)
  %26 = call ptr @ures_open_77(ptr noundef @.str, ptr noundef %25, ptr noundef %11)
  call void @_ZN6icu_778internal16LocalOpenPointerI15UResourceBundleXadL_Z13ures_close_77EEEC2EPS2_(ptr noundef nonnull align 8 dereferenceable(8) %12, ptr noundef %26)
  call void @llvm.lifetime.start.p0(i64 8, ptr %13) #11
  %27 = invoke noundef ptr @_ZNK6icu_7716LocalPointerBaseI15UResourceBundleE8getAliasEv(ptr noundef nonnull align 8 dereferenceable(8) %12)
          to label %28 unwind label %44

28:                                               ; preds = %24
  %29 = load ptr, ptr %8, align 8, !tbaa !17
  %30 = invoke ptr @ures_getByKey_77(ptr noundef %27, ptr noundef %29, ptr noundef null, ptr noundef %11)
          to label %31 unwind label %44

31:                                               ; preds = %28
  invoke void @_ZN6icu_778internal16LocalOpenPointerI15UResourceBundleXadL_Z13ures_close_77EEEC2EPS2_(ptr noundef nonnull align 8 dereferenceable(8) %13, ptr noundef %30)
          to label %32 unwind label %44

32:                                               ; preds = %31
  %33 = invoke noundef ptr @_ZNK6icu_7716LocalPointerBaseI15UResourceBundleE8getAliasEv(ptr noundef nonnull align 8 dereferenceable(8) %13)
          to label %34 unwind label %48

34:                                               ; preds = %32
  %35 = invoke noundef ptr @_ZNK6icu_7716LocalPointerBaseI15UResourceBundleE8getAliasEv(ptr noundef nonnull align 8 dereferenceable(8) %13)
          to label %36 unwind label %48

36:                                               ; preds = %34
  %37 = invoke ptr @ures_getByKey_77(ptr noundef %33, ptr noundef @.str.1, ptr noundef %35, ptr noundef %11)
          to label %38 unwind label %48

38:                                               ; preds = %36
  %39 = load i32, ptr %11, align 4, !tbaa !15
  %40 = invoke noundef signext i8 @_ZL9U_FAILURE10UErrorCode(i32 noundef %39)
          to label %41 unwind label %48

41:                                               ; preds = %38
  %42 = icmp ne i8 %40, 0
  br i1 %42, label %43, label %52

43:                                               ; preds = %41
  store i32 1, ptr %16, align 4
  br label %59

44:                                               ; preds = %31, %28, %24
  %45 = landingpad { ptr, i32 }
          cleanup
  %46 = extractvalue { ptr, i32 } %45, 0
  store ptr %46, ptr %14, align 8
  %47 = extractvalue { ptr, i32 } %45, 1
  store i32 %47, ptr %15, align 4
  br label %72

48:                                               ; preds = %38, %36, %34, %32
  %49 = landingpad { ptr, i32 }
          cleanup
  %50 = extractvalue { ptr, i32 } %49, 0
  store ptr %50, ptr %14, align 8
  %51 = extractvalue { ptr, i32 } %49, 1
  store i32 %51, ptr %15, align 4
  br label %71

52:                                               ; preds = %41
  call void @llvm.lifetime.start.p0(i64 32, ptr %17) #11
  %53 = load ptr, ptr %9, align 8, !tbaa !105
  %54 = load i32, ptr %7, align 4, !tbaa !27
  invoke void @_ZN6icu_7722TimeUnitFormatReadSinkC2EPNS_14TimeUnitFormatERKNS_7UVectorE20UTimeUnitFormatStyle(ptr noundef nonnull align 8 dereferenceable(29) %17, ptr noundef %18, ptr noundef nonnull align 8 dereferenceable(40) %53, i32 noundef %54)
          to label %55 unwind label %62

55:                                               ; preds = %52
  %56 = invoke noundef ptr @_ZNK6icu_7716LocalPointerBaseI15UResourceBundleE8getAliasEv(ptr noundef nonnull align 8 dereferenceable(8) %13)
          to label %57 unwind label %66

57:                                               ; preds = %55
  invoke void @ures_getAllItemsWithFallback_77(ptr noundef %56, ptr noundef @.str.2, ptr noundef nonnull align 8 dereferenceable(8) %17, ptr noundef nonnull align 4 dereferenceable(4) %11)
          to label %58 unwind label %66

58:                                               ; preds = %57
  call void @_ZN6icu_7722TimeUnitFormatReadSinkD1Ev(ptr noundef nonnull align 8 dereferenceable(29) %17) #11
  call void @llvm.lifetime.end.p0(i64 32, ptr %17) #11
  store i32 0, ptr %16, align 4
  br label %59

59:                                               ; preds = %58, %43
  call void @_ZN6icu_778internal16LocalOpenPointerI15UResourceBundleXadL_Z13ures_close_77EEED2Ev(ptr noundef nonnull align 8 dereferenceable(8) %13) #11
  call void @llvm.lifetime.end.p0(i64 8, ptr %13) #11
  call void @_ZN6icu_778internal16LocalOpenPointerI15UResourceBundleXadL_Z13ures_close_77EEED2Ev(ptr noundef nonnull align 8 dereferenceable(8) %12) #11
  call void @llvm.lifetime.end.p0(i64 8, ptr %12) #11
  call void @llvm.lifetime.end.p0(i64 4, ptr %11) #11
  %60 = load i32, ptr %16, align 4
  switch i32 %60, label %78 [
    i32 0, label %61
    i32 1, label %61
  ]

61:                                               ; preds = %23, %59, %59
  ret void

62:                                               ; preds = %52
  %63 = landingpad { ptr, i32 }
          cleanup
  %64 = extractvalue { ptr, i32 } %63, 0
  store ptr %64, ptr %14, align 8
  %65 = extractvalue { ptr, i32 } %63, 1
  store i32 %65, ptr %15, align 4
  br label %70

66:                                               ; preds = %57, %55
  %67 = landingpad { ptr, i32 }
          cleanup
  %68 = extractvalue { ptr, i32 } %67, 0
  store ptr %68, ptr %14, align 8
  %69 = extractvalue { ptr, i32 } %67, 1
  store i32 %69, ptr %15, align 4
  call void @_ZN6icu_7722TimeUnitFormatReadSinkD1Ev(ptr noundef nonnull align 8 dereferenceable(29) %17) #11
  br label %70

70:                                               ; preds = %66, %62
  call void @llvm.lifetime.end.p0(i64 32, ptr %17) #11
  br label %71

71:                                               ; preds = %70, %48
  call void @_ZN6icu_778internal16LocalOpenPointerI15UResourceBundleXadL_Z13ures_close_77EEED2Ev(ptr noundef nonnull align 8 dereferenceable(8) %13) #11
  br label %72

72:                                               ; preds = %71, %44
  call void @llvm.lifetime.end.p0(i64 8, ptr %13) #11
  call void @_ZN6icu_778internal16LocalOpenPointerI15UResourceBundleXadL_Z13ures_close_77EEED2Ev(ptr noundef nonnull align 8 dereferenceable(8) %12) #11
  call void @llvm.lifetime.end.p0(i64 8, ptr %12) #11
  call void @llvm.lifetime.end.p0(i64 4, ptr %11) #11
  br label %73

73:                                               ; preds = %72
  %74 = load ptr, ptr %14, align 8
  %75 = load i32, ptr %15, align 4
  %76 = insertvalue { ptr, i32 } poison, ptr %74, 0
  %77 = insertvalue { ptr, i32 } %76, i32 %75, 1
  resume { ptr, i32 } %77

78:                                               ; preds = %59
  unreachable
}