; Function Attrs: mustprogress uwtable
define void @_ZN6icu_7714TimeUnitFormat21readFromCurrentLocaleE20UTimeUnitFormatStylePKcRKNS_7UVectorER10UErrorCode(ptr noundef nonnull align 8 dereferenceable(124) %0, i32 noundef %1, ptr noundef %2, ptr noundef nonnull align 8 dereferenceable(40) %3, ptr noundef nonnull readonly align 4 captures(none) dereferenceable(4) %4) local_unnamed_addr #1 align 2 personality ptr @__gxx_personality_v0 {
  %6 = alloca i32, align 4
  %7 = alloca %"class.icu_77::internal::LocalOpenPointer", align 8
  %8 = alloca %"class.icu_77::internal::LocalOpenPointer", align 8
  %9 = alloca %"struct.icu_77::TimeUnitFormatReadSink", align 8
  %10 = load i32, ptr %4, align 4, !tbaa !13
  %11 = icmp slt i32 %10, 1
  br i1 %11, label %12, label %40

12:                                               ; preds = %5
  call void @llvm.lifetime.start.p0(i64 4, ptr nonnull %6) #16
  store i32 0, ptr %6, align 4, !tbaa !13
  call void @llvm.lifetime.start.p0(i64 8, ptr nonnull %7) #16
  %13 = call noundef ptr @_ZNK6icu_7713MeasureFormat11getLocaleIDER10UErrorCode(ptr noundef nonnull align 8 dereferenceable(64) %0, ptr noundef nonnull align 4 dereferenceable(4) %6)
  %14 = call ptr @ures_open_77(ptr noundef nonnull @.str, ptr noundef %13, ptr noundef nonnull %6)
  store ptr %14, ptr %7, align 8, !tbaa !56
  call void @llvm.lifetime.start.p0(i64 8, ptr nonnull %8) #16
  %15 = invoke ptr @ures_getByKey_77(ptr noundef %14, ptr noundef %2, ptr noundef null, ptr noundef nonnull %6)
          to label %16 unwind label %21

16:                                               ; preds = %12
  store ptr %15, ptr %8, align 8, !tbaa !56
  %17 = invoke ptr @ures_getByKey_77(ptr noundef %15, ptr noundef nonnull @.str.1, ptr noundef %15, ptr noundef nonnull %6)
          to label %18 unwind label %23

18:                                               ; preds = %16
  %19 = load i32, ptr %6, align 4, !tbaa !13
  %20 = icmp slt i32 %19, 1
  br i1 %20, label %25, label %31

21:                                               ; preds = %12
  %22 = landingpad { ptr, i32 }
          cleanup
  br label %44

23:                                               ; preds = %16
  %24 = landingpad { ptr, i32 }
          cleanup
  br label %43

25:                                               ; preds = %18
  call void @llvm.lifetime.start.p0(i64 32, ptr nonnull %9) #16
  store ptr getelementptr inbounds nuw inrange(-16, 32) (i8, ptr @_ZTVN6icu_7722TimeUnitFormatReadSinkE, i64 16), ptr %9, align 8, !tbaa !15
  %26 = getelementptr inbounds nuw i8, ptr %9, i64 8
  store ptr %0, ptr %26, align 8, !tbaa !59
  %27 = getelementptr inbounds nuw i8, ptr %9, i64 16
  store ptr %3, ptr %27, align 8, !tbaa !64
  %28 = getelementptr inbounds nuw i8, ptr %9, i64 24
  store i32 %1, ptr %28, align 8, !tbaa !65
  %29 = getelementptr inbounds nuw i8, ptr %9, i64 28
  store i8 0, ptr %29, align 4, !tbaa !66
  invoke void @ures_getAllItemsWithFallback_77(ptr noundef %15, ptr noundef nonnull @.str.2, ptr noundef nonnull align 8 dereferenceable(8) %9, ptr noundef nonnull align 4 dereferenceable(4) %6)
          to label %30 unwind label %41

30:                                               ; preds = %25
  call void @_ZN6icu_7722TimeUnitFormatReadSinkD1Ev(ptr noundef nonnull align 8 dereferenceable(29) %9) #16
  call void @llvm.lifetime.end.p0(i64 32, ptr nonnull %9) #16
  br label %31

31:                                               ; preds = %18, %30
  %.not.i = icmp eq ptr %15, null
  br i1 %.not.i, label %_ZN6icu_778internal16LocalOpenPointerI15UResourceBundleXadL_Z13ures_close_77EEED2Ev.exit, label %32

32:                                               ; preds = %31
  invoke void @ures_close_77(ptr noundef nonnull %15)
          to label %_ZN6icu_778internal16LocalOpenPointerI15UResourceBundleXadL_Z13ures_close_77EEED2Ev.exit unwind label %33

33:                                               ; preds = %32
  %34 = landingpad { ptr, i32 }
          catch ptr null
  %35 = extractvalue { ptr, i32 } %34, 0
  call void @__clang_call_terminate(ptr %35) #18
  unreachable

_ZN6icu_778internal16LocalOpenPointerI15UResourceBundleXadL_Z13ures_close_77EEED2Ev.exit: ; preds = %31, %32
  call void @llvm.lifetime.end.p0(i64 8, ptr nonnull %8) #16
  %.not.i13 = icmp eq ptr %14, null
  br i1 %.not.i13, label %_ZN6icu_778internal16LocalOpenPointerI15UResourceBundleXadL_Z13ures_close_77EEED2Ev.exit14, label %36

36:                                               ; preds = %_ZN6icu_778internal16LocalOpenPointerI15UResourceBundleXadL_Z13ures_close_77EEED2Ev.exit
  invoke void @ures_close_77(ptr noundef nonnull %14)
          to label %_ZN6icu_778internal16LocalOpenPointerI15UResourceBundleXadL_Z13ures_close_77EEED2Ev.exit14 unwind label %37

37:                                               ; preds = %36
  %38 = landingpad { ptr, i32 }
          catch ptr null
  %39 = extractvalue { ptr, i32 } %38, 0
  call void @__clang_call_terminate(ptr %39) #18
  unreachable

_ZN6icu_778internal16LocalOpenPointerI15UResourceBundleXadL_Z13ures_close_77EEED2Ev.exit14: ; preds = %_ZN6icu_778internal16LocalOpenPointerI15UResourceBundleXadL_Z13ures_close_77EEED2Ev.exit, %36
  call void @llvm.lifetime.end.p0(i64 8, ptr nonnull %7) #16
  call void @llvm.lifetime.end.p0(i64 4, ptr nonnull %6) #16
  br label %40

40:                                               ; preds = %5, %_ZN6icu_778internal16LocalOpenPointerI15UResourceBundleXadL_Z13ures_close_77EEED2Ev.exit14
  ret void

41:                                               ; preds = %25
  %42 = landingpad { ptr, i32 }
          cleanup
  call void @_ZN6icu_7722TimeUnitFormatReadSinkD1Ev(ptr noundef nonnull align 8 dereferenceable(29) %9) #16
  call void @llvm.lifetime.end.p0(i64 32, ptr nonnull %9) #16
  br label %43

43:                                               ; preds = %41, %23
  %.pn.pn = phi { ptr, i32 } [ %42, %41 ], [ %24, %23 ]
  call void @_ZN6icu_778internal16LocalOpenPointerI15UResourceBundleXadL_Z13ures_close_77EEED2Ev(ptr noundef nonnull align 8 dereferenceable(8) %8) #16
  br label %44

44:                                               ; preds = %43, %21
  %.pn.pn.pn = phi { ptr, i32 } [ %.pn.pn, %43 ], [ %22, %21 ]
  call void @llvm.lifetime.end.p0(i64 8, ptr nonnull %8) #16
  call void @_ZN6icu_778internal16LocalOpenPointerI15UResourceBundleXadL_Z13ures_close_77EEED2Ev(ptr noundef nonnull align 8 dereferenceable(8) %7) #16
  call void @llvm.lifetime.end.p0(i64 8, ptr nonnull %7) #16
  call void @llvm.lifetime.end.p0(i64 4, ptr nonnull %6) #16
  resume { ptr, i32 } %.pn.pn.pn
}